; Function Attrs: mustprogress uwtable
define dso_local noundef i32 @_ZNK4Json5Value7compareERKS0_(ptr nocapture noundef nonnull readonly align 8 dereferenceable(40) %0, ptr nocapture noundef nonnull readonly align 8 dereferenceable(40) %1) local_unnamed_addr #10 align 2 {
  %3 = tail call noundef zeroext i1 @_ZNK4Json5ValueltERKS0_(ptr noundef nonnull align 8 dereferenceable(40) %0, ptr noundef nonnull align 8 dereferenceable(40) %1)
  br i1 %3, label %6, label %4

4:                                                ; preds = %2
  %5 = tail call noundef zeroext i1 @_ZNK4Json5ValueltERKS0_(ptr noundef nonnull align 8 dereferenceable(40) %1, ptr noundef nonnull align 8 dereferenceable(40) %0)
  %. = zext i1 %5 to i32
  br label %6

6:                                                ; preds = %4, %2
  %.0 = phi i32 [ -1, %2 ], [ %., %4 ]
  ret i32 %.0
}